(lp0
(lp1
(lp2
I10
aI100
aI240
aI320
aV#ffc4c5
p3
aV
p4
aa(lp5
I30
aI120
aI80
aI80
aV#ffffff
p6
aV\u6ce2\u6bb5\u9009\u62e9
p7
aa(lp8
I150
aI120
aI80
aI80
aV#ffffff
p9
aV\u7535\u6587\u52a0\u8f7d
p10
aa(lp11
I150
aI220
aI80
aI80
aV#ffffff
p12
aV\u72b6\u6001\u67e5\u8be2
p13
aa(lp14
I150
aI320
aI80
aI80
aV#ffffff
p15
aV\u8f93\u51fa\u529f\u7387
p16
aa(lp17
I30
aI320
aI80
aI80
aV#ffffff
p18
aV\u591a\u666e\u52d2\u9891\u79fb
p19
aa(lp20
I30
aI220
aI80
aI80
aV#ffffff
p21
aV\u4f2a\u7801\u9009\u62e9
p22
aaa(lp23
(lp24
I10
aI100
aI240
aI320
aV#7f6eff
p25
aV
p26
aa(lp27
I20
aI200
aI100
aI100
aV#ffffff
p28
aVE1
p29
aa(lp30
I140
aI200
aI100
aI100
aV#ffffff
p31
aVL1
p32
aaa(lp33
(lp34
I10
aI100
aI240
aI320
aV#000000
p35
aV
p36
aaa.