(lp0
(lp1
(lp2
I10
aI100
aI240
aI320
aV#ffc4c5
p3
aa(lp4
I30
aI120
aI80
aI80
aV#000000
p5
aa(lp6
I150
aI120
aI80
aI80
aV#000000
p7
aa(lp8
I150
aI220
aI80
aI80
aV#000000
p9
aa(lp10
I150
aI320
aI80
aI80
aV#000000
p11
aa(lp12
I30
aI320
aI80
aI80
aV#000000
p13
aa(lp14
I30
aI220
aI80
aI80
aV#000000
p15
aaa(lp16
(lp17
I10
aI100
aI240
aI320
aV#7f6eff
p18
aaa.